target datalayout = "e-m:e-p270:32:32-p271:32:32-p272:64:64-i64:64-i128:128-f80:128-n8:16:32:64-S128"
target triple = "x86_64-pc-linux-gnu"

%class.JVMCIEnv = type { ptr, i8, i8, ptr, i8, i8, ptr, i32, i32, ptr, ptr }
%class.JVMCIObject = type <{ ptr, i8, [7 x i8] }>

; Function Attrs: mustprogress nounwind uwtable
define linkonce_odr hidden noundef zeroext i1 @_ZN8JVMCIEnv10is_hotspotEv(ptr noundef nonnull align 8 dereferenceable(64) %0) #1 comdat align 2 {
  %2 = alloca ptr, align 8
  store ptr %0, ptr %2, align 8
  %3 = load ptr, ptr %2, align 8
  %4 = getelementptr inbounds %class.JVMCIEnv, ptr %3, i32 0, i32 4
  %5 = load i8, ptr %4, align 8
  %6 = trunc i8 %5 to i1
  ret i1 %6
}

; Function Attrs: mustprogress nounwind uwtable
define hidden noundef zeroext i1 @_ZN8JVMCIEnv20isa_BytecodePositionE11JVMCIObject(ptr noundef nonnull align 8 dereferenceable(64) %0, ptr %1, i8 %2) #1 align 2 {
  %4 = alloca i1, align 1
  %5 = alloca %class.JVMCIObject, align 8
  %6 = alloca ptr, align 8
  %7 = alloca %class.JVMCIObject, align 8
  %8 = alloca %class.JVMCIObject, align 8
  %9 = getelementptr inbounds { ptr, i8 }, ptr %5, i32 0, i32 0
  store ptr %1, ptr %9, align 8
  %10 = getelementptr inbounds { ptr, i8 }, ptr %5, i32 0, i32 1
  store i8 %2, ptr %10, align 8
  store ptr %0, ptr %6, align 8
  %11 = load ptr, ptr %6, align 8
  %12 = call noundef zeroext i1 @_ZN8JVMCIEnv10is_hotspotEv(ptr noundef nonnull align 8 dereferenceable(64) %11)
  br i1 %12, label %13, label %19

13:                                               ; preds = %3
  call void @llvm.memcpy.p0.p0.i64(ptr align 8 %7, ptr align 8 %5, i64 16, i1 false)
  %14 = getelementptr inbounds { ptr, i8 }, ptr %7, i32 0, i32 0
  %15 = load ptr, ptr %14, align 8
  %16 = getelementptr inbounds { ptr, i8 }, ptr %7, i32 0, i32 1
  %17 = load i8, ptr %16, align 8
  %18 = call noundef zeroext i1 @_ZN12HotSpotJVMCI16BytecodePosition11is_instanceEP8JVMCIEnv11JVMCIObject(ptr noundef %11, ptr %15, i8 %17)
  store i1 %18, ptr %4, align 1
  br label %25

19:                                               ; preds = %3
  call void @llvm.memcpy.p0.p0.i64(ptr align 8 %8, ptr align 8 %5, i64 16, i1 false)
  %20 = getelementptr inbounds { ptr, i8 }, ptr %8, i32 0, i32 0
  %21 = load ptr, ptr %20, align 8
  %22 = getelementptr inbounds { ptr, i8 }, ptr %8, i32 0, i32 1
  %23 = load i8, ptr %22, align 8
  %24 = call noundef zeroext i1 @_ZN8JNIJVMCI16BytecodePosition11is_instanceEP8JVMCIEnv11JVMCIObject(ptr noundef %11, ptr %21, i8 %23)
  store i1 %24, ptr %4, align 1
  br label %25

25:                                               ; preds = %19, %13
  %26 = load i1, ptr %4, align 1
  ret i1 %26
}